; Function Attrs: mustprogress uwtable
define void @_ZN5faiss20IndexBinaryFromFloatC2Ev(ptr noundef nonnull align 8 dereferenceable(41) %0) unnamed_addr #1 align 2 {
  tail call void @_ZN5faiss11IndexBinaryC2ElNS_10MetricTypeE(ptr noundef nonnull align 8 dereferenceable(32) %0, i64 noundef 0, i32 noundef 1)
  store ptr getelementptr inbounds ({ [16 x ptr] }, ptr @_ZTVN5faiss20IndexBinaryFromFloatE, i64 0, i32 0, i64 2), ptr %0, align 8
  %2 = getelementptr inbounds i8, ptr %0, i64 32
  store ptr null, ptr %2, align 8
  %3 = getelementptr inbounds i8, ptr %0, i64 40
  store i8 0, ptr %3, align 8
  ret void
}